target datalayout = "e-m:e-p270:32:32-p271:32:32-p272:64:64-i64:64-i128:128-f80:128-n8:16:32:64-S128"
target triple = "x86_64-pc-linux-gnu"

%struct.expert_field = type { i32, i32 }
%struct.inst_header = type { i32, i32 }

@hf_openflow_v6_instruction_type = internal global i32 0, align 4
@hf_openflow_v6_instruction_length = internal global i32 0, align 4
@hf_openflow_v6_instruction_experimenter_experimenter = internal global i32 0, align 4
@hf_openflow_v6_instruction_goto_table_table_id = internal global i32 0, align 4
@hf_openflow_v6_instruction_goto_table_pad = internal global i32 0, align 4
@hf_openflow_v6_instruction_write_metadata_pad = internal global i32 0, align 4
@hf_openflow_v6_instruction_write_metadata_value = internal global i32 0, align 4
@hf_openflow_v6_instruction_write_metadata_mask = internal global i32 0, align 4
@hf_openflow_v6_instruction_actions_pad = internal global i32 0, align 4
@hf_openflow_v6_instruction_stat_trigger_flags = internal global i32 0, align 4
@hf_openflow_v6_instruction_stat_triffer_flags_periodic = internal global i32 0, align 4
@hf_openflow_v6_instruction_stat_triffer_flags_only_first = internal global i32 0, align 4
@hf_openflow_v6_instruction_stat_triffer_flags_reserved = internal global i32 0, align 4
@ett_openflow_v6_instruction = internal global i32 0, align 4
@ett_openflow_v6_instruction_stat_trigger_flags = internal global i32 0, align 4
@ei_openflow_v6_instruction_undecoded = internal global %struct.expert_field zeroinitializer, align 4
@.str.1035 = private unnamed_addr constant [26 x i8] c"Unknown instruction body.\00", align 1
@.str.1601 = private unnamed_addr constant [12 x i8] c"Instruction\00", align 1
@.str.1602 = private unnamed_addr constant [31 x i8] c"Experimenter instruction body.\00", align 1

; Function Attrs: null_pointer_is_valid sspstrong uwtable
define internal i32 @dissect_openflow_instruction_header_v6(ptr noundef %0, ptr noundef %1, ptr noundef %2, i32 noundef %3, i16 noundef zeroext %4, ptr noundef %5) #0 {
  %7 = alloca ptr, align 8
  %8 = alloca ptr, align 8
  %9 = alloca ptr, align 8
  %10 = alloca i32, align 4
  %11 = alloca i16, align 2
  %12 = alloca ptr, align 8
  %13 = alloca i32, align 4
  %14 = alloca i32, align 4
  store ptr %0, ptr %7, align 8
  store ptr %1, ptr %8, align 8
  store ptr %2, ptr %9, align 8
  store i32 %3, ptr %10, align 4
  store i16 %4, ptr %11, align 2
  store ptr %5, ptr %12, align 8
  call void @llvm.lifetime.start.p0(i64 4, ptr %13) #5
  call void @llvm.lifetime.start.p0(i64 4, ptr %14) #5
  %15 = load ptr, ptr %9, align 8
  %16 = load i32, ptr @hf_openflow_v6_instruction_type, align 4
  %17 = load ptr, ptr %7, align 8
  %18 = load i32, ptr %10, align 4
  %19 = call ptr @proto_tree_add_item_ret_uint(ptr noundef %15, i32 noundef %16, ptr noundef %17, i32 noundef %18, i32 noundef 2, i32 noundef 0, ptr noundef %13)
  %20 = load i32, ptr %10, align 4
  %21 = add i32 %20, 2
  store i32 %21, ptr %10, align 4
  %22 = load ptr, ptr %9, align 8
  %23 = load i32, ptr @hf_openflow_v6_instruction_length, align 4
  %24 = load ptr, ptr %7, align 8
  %25 = load i32, ptr %10, align 4
  %26 = call ptr @proto_tree_add_item_ret_uint(ptr noundef %22, i32 noundef %23, ptr noundef %24, i32 noundef %25, i32 noundef 2, i32 noundef 0, ptr noundef %14)
  %27 = load i32, ptr %10, align 4
  %28 = add i32 %27, 2
  store i32 %28, ptr %10, align 4
  %29 = load i32, ptr %13, align 4
  %30 = icmp eq i32 %29, 65535
  br i1 %30, label %31, label %39

31:                                               ; preds = %6
  %32 = load ptr, ptr %9, align 8
  %33 = load i32, ptr @hf_openflow_v6_instruction_experimenter_experimenter, align 4
  %34 = load ptr, ptr %7, align 8
  %35 = load i32, ptr %10, align 4
  %36 = call ptr @proto_tree_add_item(ptr noundef %32, i32 noundef %33, ptr noundef %34, i32 noundef %35, i32 noundef 4, i32 noundef 0)
  %37 = load i32, ptr %10, align 4
  %38 = add i32 %37, 4
  store i32 %38, ptr %10, align 4
  br label %39

39:                                               ; preds = %31, %6
  %40 = load ptr, ptr %12, align 8
  %41 = icmp ne ptr %40, null
  br i1 %41, label %42, label %49

42:                                               ; preds = %39
  %43 = load i32, ptr %13, align 4
  %44 = load ptr, ptr %12, align 8
  %45 = getelementptr inbounds nuw %struct.inst_header, ptr %44, i32 0, i32 0
  store i32 %43, ptr %45, align 4
  %46 = load i32, ptr %14, align 4
  %47 = load ptr, ptr %12, align 8
  %48 = getelementptr inbounds nuw %struct.inst_header, ptr %47, i32 0, i32 1
  store i32 %46, ptr %48, align 4
  br label %49

49:                                               ; preds = %42, %39
  %50 = load i32, ptr %10, align 4
  call void @llvm.lifetime.end.p0(i64 4, ptr %14) #5
  call void @llvm.lifetime.end.p0(i64 4, ptr %13) #5
  ret i32 %50
}

; Function Attrs: null_pointer_is_valid sspstrong uwtable
define internal i32 @dissect_openflow_instruction_v6(ptr noundef %0, ptr noundef %1, ptr noundef %2, i32 noundef %3, i16 noundef zeroext %4) #0 {
  %6 = alloca ptr, align 8
  %7 = alloca ptr, align 8
  %8 = alloca ptr, align 8
  %9 = alloca i32, align 4
  %10 = alloca i16, align 2
  %11 = alloca ptr, align 8
  %12 = alloca ptr, align 8
  %13 = alloca ptr, align 8
  %14 = alloca %struct.inst_header, align 4
  %15 = alloca i32, align 4
  store ptr %0, ptr %6, align 8
  store ptr %1, ptr %7, align 8
  store ptr %2, ptr %8, align 8
  store i32 %3, ptr %9, align 4
  store i16 %4, ptr %10, align 2
  call void @llvm.lifetime.start.p0(i64 8, ptr %11) #5
  call void @llvm.lifetime.start.p0(i64 8, ptr %12) #5
  call void @llvm.lifetime.start.p0(i64 8, ptr %13) #5
  call void @llvm.lifetime.start.p0(i64 8, ptr %14) #5
  call void @llvm.lifetime.start.p0(i64 4, ptr %15) #5
  %16 = load ptr, ptr %8, align 8
  %17 = load ptr, ptr %6, align 8
  %18 = load i32, ptr %9, align 4
  %19 = load i32, ptr @ett_openflow_v6_instruction, align 4
  %20 = call ptr @proto_tree_add_subtree(ptr noundef %16, ptr noundef %17, i32 noundef %18, i32 noundef -1, i32 noundef %19, ptr noundef %11, ptr noundef @.str.1601)
  store ptr %20, ptr %12, align 8
  %21 = load ptr, ptr %6, align 8
  %22 = load ptr, ptr %7, align 8
  %23 = load ptr, ptr %12, align 8
  %24 = load i32, ptr %9, align 4
  %25 = load i16, ptr %10, align 2
  %26 = call i32 @dissect_openflow_instruction_header_v6(ptr noundef %21, ptr noundef %22, ptr noundef %23, i32 noundef %24, i16 noundef zeroext %25, ptr noundef %14)
  store i32 %26, ptr %9, align 4
  %27 = load ptr, ptr %11, align 8
  %28 = getelementptr inbounds nuw %struct.inst_header, ptr %14, i32 0, i32 1
  %29 = load i32, ptr %28, align 4
  call void @proto_item_set_len(ptr noundef %27, i32 noundef %29)
  %30 = getelementptr inbounds nuw %struct.inst_header, ptr %14, i32 0, i32 1
  %31 = load i32, ptr %30, align 4
  %32 = icmp ult i32 %31, 8
  br i1 %32, label %33, label %35

33:                                               ; preds = %5
  %34 = getelementptr inbounds nuw %struct.inst_header, ptr %14, i32 0, i32 1
  store i32 8, ptr %34, align 4
  br label %35

35:                                               ; preds = %33, %5
  %36 = load i32, ptr %9, align 4
  %37 = getelementptr inbounds nuw %struct.inst_header, ptr %14, i32 0, i32 1
  %38 = load i32, ptr %37, align 4
  %39 = add i32 %36, %38
  %40 = sub i32 %39, 4
  store i32 %40, ptr %15, align 4
  %41 = getelementptr inbounds nuw %struct.inst_header, ptr %14, i32 0, i32 0
  %42 = load i32, ptr %41, align 4
  switch i32 %42, label %152 [
    i32 1, label %43
    i32 2, label %58
    i32 3, label %80
    i32 4, label %80
    i32 5, label %80
    i32 7, label %100
    i32 65535, label %138
  ]

43:                                               ; preds = %35
  %44 = load ptr, ptr %12, align 8
  %45 = load i32, ptr @hf_openflow_v6_instruction_goto_table_table_id, align 4
  %46 = load ptr, ptr %6, align 8
  %47 = load i32, ptr %9, align 4
  %48 = call ptr @proto_tree_add_item(ptr noundef %44, i32 noundef %45, ptr noundef %46, i32 noundef %47, i32 noundef 1, i32 noundef 0)
  %49 = load i32, ptr %9, align 4
  %50 = add i32 %49, 1
  store i32 %50, ptr %9, align 4
  %51 = load ptr, ptr %12, align 8
  %52 = load i32, ptr @hf_openflow_v6_instruction_goto_table_pad, align 4
  %53 = load ptr, ptr %6, align 8
  %54 = load i32, ptr %9, align 4
  %55 = call ptr @proto_tree_add_item(ptr noundef %51, i32 noundef %52, ptr noundef %53, i32 noundef %54, i32 noundef 3, i32 noundef 0)
  %56 = load i32, ptr %9, align 4
  %57 = add i32 %56, 3
  store i32 %57, ptr %9, align 4
  br label %166

58:                                               ; preds = %35
  %59 = load ptr, ptr %12, align 8
  %60 = load i32, ptr @hf_openflow_v6_instruction_write_metadata_pad, align 4
  %61 = load ptr, ptr %6, align 8
  %62 = load i32, ptr %9, align 4
  %63 = call ptr @proto_tree_add_item(ptr noundef %59, i32 noundef %60, ptr noundef %61, i32 noundef %62, i32 noundef 4, i32 noundef 0)
  %64 = load i32, ptr %9, align 4
  %65 = add i32 %64, 4
  store i32 %65, ptr %9, align 4
  %66 = load ptr, ptr %12, align 8
  %67 = load i32, ptr @hf_openflow_v6_instruction_write_metadata_value, align 4
  %68 = load ptr, ptr %6, align 8
  %69 = load i32, ptr %9, align 4
  %70 = call ptr @proto_tree_add_item(ptr noundef %66, i32 noundef %67, ptr noundef %68, i32 noundef %69, i32 noundef 8, i32 noundef 0)
  %71 = load i32, ptr %9, align 4
  %72 = add i32 %71, 8
  store i32 %72, ptr %9, align 4
  %73 = load ptr, ptr %12, align 8
  %74 = load i32, ptr @hf_openflow_v6_instruction_write_metadata_mask, align 4
  %75 = load ptr, ptr %6, align 8
  %76 = load i32, ptr %9, align 4
  %77 = call ptr @proto_tree_add_item(ptr noundef %73, i32 noundef %74, ptr noundef %75, i32 noundef %76, i32 noundef 8, i32 noundef 0)
  %78 = load i32, ptr %9, align 4
  %79 = add i32 %78, 8
  store i32 %79, ptr %9, align 4
  br label %166

80:                                               ; preds = %35, %35, %35
  %81 = load ptr, ptr %12, align 8
  %82 = load i32, ptr @hf_openflow_v6_instruction_actions_pad, align 4
  %83 = load ptr, ptr %6, align 8
  %84 = load i32, ptr %9, align 4
  %85 = call ptr @proto_tree_add_item(ptr noundef %81, i32 noundef %82, ptr noundef %83, i32 noundef %84, i32 noundef 4, i32 noundef 0)
  %86 = load i32, ptr %9, align 4
  %87 = add i32 %86, 4
  store i32 %87, ptr %9, align 4
  br label %88

88:                                               ; preds = %92, %80
  %89 = load i32, ptr %9, align 4
  %90 = load i32, ptr %15, align 4
  %91 = icmp slt i32 %89, %90
  br i1 %91, label %92, label %99

92:                                               ; preds = %88
  %93 = load ptr, ptr %6, align 8
  %94 = load ptr, ptr %7, align 8
  %95 = load ptr, ptr %12, align 8
  %96 = load i32, ptr %9, align 4
  %97 = load i16, ptr %10, align 2
  %98 = call i32 @dissect_openflow_action_v6(ptr noundef %93, ptr noundef %94, ptr noundef %95, i32 noundef %96, i16 noundef zeroext %97)
  store i32 %98, ptr %9, align 4
  br label %88, !llvm.loop !38

99:                                               ; preds = %88
  br label %166

100:                                              ; preds = %35
  %101 = load ptr, ptr %12, align 8
  %102 = load i32, ptr @hf_openflow_v6_instruction_stat_trigger_flags, align 4
  %103 = load ptr, ptr %6, align 8
  %104 = load i32, ptr %9, align 4
  %105 = call ptr @proto_tree_add_item(ptr noundef %101, i32 noundef %102, ptr noundef %103, i32 noundef %104, i32 noundef 4, i32 noundef 0)
  store ptr %105, ptr %11, align 8
  %106 = load ptr, ptr %11, align 8
  %107 = load i32, ptr @ett_openflow_v6_instruction_stat_trigger_flags, align 4
  %108 = call ptr @proto_item_add_subtree(ptr noundef %106, i32 noundef %107)
  store ptr %108, ptr %13, align 8
  %109 = load ptr, ptr %13, align 8
  %110 = load i32, ptr @hf_openflow_v6_instruction_stat_triffer_flags_periodic, align 4
  %111 = load ptr, ptr %6, align 8
  %112 = load i32, ptr %9, align 4
  %113 = call ptr @proto_tree_add_item(ptr noundef %109, i32 noundef %110, ptr noundef %111, i32 noundef %112, i32 noundef 4, i32 noundef 0)
  %114 = load ptr, ptr %13, align 8
  %115 = load i32, ptr @hf_openflow_v6_instruction_stat_triffer_flags_only_first, align 4
  %116 = load ptr, ptr %6, align 8
  %117 = load i32, ptr %9, align 4
  %118 = call ptr @proto_tree_add_item(ptr noundef %114, i32 noundef %115, ptr noundef %116, i32 noundef %117, i32 noundef 4, i32 noundef 0)
  %119 = load ptr, ptr %13, align 8
  %120 = load i32, ptr @hf_openflow_v6_instruction_stat_triffer_flags_reserved, align 4
  %121 = load ptr, ptr %6, align 8
  %122 = load i32, ptr %9, align 4
  %123 = call ptr @proto_tree_add_item(ptr noundef %119, i32 noundef %120, ptr noundef %121, i32 noundef %122, i32 noundef 4, i32 noundef 0)
  %124 = load i32, ptr %9, align 4
  %125 = add i32 %124, 4
  store i32 %125, ptr %9, align 4
  br label %126

126:                                              ; preds = %130, %100
  %127 = load i32, ptr %9, align 4
  %128 = load i32, ptr %15, align 4
  %129 = icmp slt i32 %127, %128
  br i1 %129, label %130, label %137

130:                                              ; preds = %126
  %131 = load ptr, ptr %6, align 8
  %132 = load ptr, ptr %7, align 8
  %133 = load ptr, ptr %12, align 8
  %134 = load i32, ptr %9, align 4
  %135 = load i16, ptr %10, align 2
  %136 = call i32 @dissect_openflow_stats_v6(ptr noundef %131, ptr noundef %132, ptr noundef %133, i32 noundef %134, i16 noundef zeroext %135)
  store i32 %136, ptr %9, align 4
  br label %126, !llvm.loop !39

137:                                              ; preds = %126
  br label %166

138:                                              ; preds = %35
  %139 = load ptr, ptr %12, align 8
  %140 = load ptr, ptr %7, align 8
  %141 = load ptr, ptr %6, align 8
  %142 = load i32, ptr %9, align 4
  %143 = getelementptr inbounds nuw %struct.inst_header, ptr %14, i32 0, i32 1
  %144 = load i32, ptr %143, align 4
  %145 = sub i32 %144, 8
  %146 = call ptr (ptr, ptr, ptr, ptr, i32, i32, ptr, ...) @proto_tree_add_expert_format(ptr noundef %139, ptr noundef %140, ptr noundef @ei_openflow_v6_instruction_undecoded, ptr noundef %141, i32 noundef %142, i32 noundef %145, ptr noundef @.str.1602)
  %147 = getelementptr inbounds nuw %struct.inst_header, ptr %14, i32 0, i32 1
  %148 = load i32, ptr %147, align 4
  %149 = sub i32 %148, 8
  %150 = load i32, ptr %9, align 4
  %151 = add i32 %150, %149
  store i32 %151, ptr %9, align 4
  br label %166

152:                                              ; preds = %35
  %153 = load ptr, ptr %12, align 8
  %154 = load ptr, ptr %7, align 8
  %155 = load ptr, ptr %6, align 8
  %156 = load i32, ptr %9, align 4
  %157 = getelementptr inbounds nuw %struct.inst_header, ptr %14, i32 0, i32 1
  %158 = load i32, ptr %157, align 4
  %159 = sub i32 %158, 4
  %160 = call ptr (ptr, ptr, ptr, ptr, i32, i32, ptr, ...) @proto_tree_add_expert_format(ptr noundef %153, ptr noundef %154, ptr noundef @ei_openflow_v6_instruction_undecoded, ptr noundef %155, i32 noundef %156, i32 noundef %159, ptr noundef @.str.1035)
  %161 = getelementptr inbounds nuw %struct.inst_header, ptr %14, i32 0, i32 1
  %162 = load i32, ptr %161, align 4
  %163 = sub i32 %162, 4
  %164 = load i32, ptr %9, align 4
  %165 = add i32 %164, %163
  store i32 %165, ptr %9, align 4
  br label %166

166:                                              ; preds = %152, %138, %137, %99, %58, %43
  %167 = load i32, ptr %9, align 4
  call void @llvm.lifetime.end.p0(i64 4, ptr %15) #5
  call void @llvm.lifetime.end.p0(i64 8, ptr %14) #5
  call void @llvm.lifetime.end.p0(i64 8, ptr %13) #5
  call void @llvm.lifetime.end.p0(i64 8, ptr %12) #5
  call void @llvm.lifetime.end.p0(i64 8, ptr %11) #5
  ret i32 %167
}