; Function Attrs: null_pointer_is_valid sspstrong uwtable
define internal fastcc i32 @dissect_openflow_instruction_v6(ptr noundef %0, ptr noundef %1, ptr noundef %2, i32 noundef %3) unnamed_addr #0 {
  %5 = alloca i32, align 4
  %6 = alloca i32, align 4
  %7 = alloca ptr, align 8
  call void @llvm.lifetime.start.p0(i64 8, ptr nonnull %7) #4
  %8 = load i32, ptr @ett_openflow_v6_instruction, align 4
  %9 = call ptr @proto_tree_add_subtree(ptr noundef %2, ptr noundef %0, i32 noundef %3, i32 noundef -1, i32 noundef %8, ptr noundef nonnull %7, ptr noundef nonnull @.str.1601)
  call void @llvm.lifetime.start.p0(i64 4, ptr nonnull %5) #4
  call void @llvm.lifetime.start.p0(i64 4, ptr nonnull %6) #4
  %10 = load i32, ptr @hf_openflow_v6_instruction_type, align 4
  %11 = call ptr @proto_tree_add_item_ret_uint(ptr noundef %9, i32 noundef %10, ptr noundef %0, i32 noundef %3, i32 noundef 2, i32 noundef 0, ptr noundef nonnull %5)
  %12 = add i32 %3, 2
  %13 = load i32, ptr @hf_openflow_v6_instruction_length, align 4
  %14 = call ptr @proto_tree_add_item_ret_uint(ptr noundef %9, i32 noundef %13, ptr noundef %0, i32 noundef %12, i32 noundef 2, i32 noundef 0, ptr noundef nonnull %6)
  %15 = add i32 %3, 4
  %16 = load i32, ptr %5, align 4
  %17 = icmp eq i32 %16, 65535
  br i1 %17, label %18, label %dissect_openflow_instruction_header_v6.exit

18:                                               ; preds = %4
  %19 = load i32, ptr @hf_openflow_v6_instruction_experimenter_experimenter, align 4
  %20 = call ptr @proto_tree_add_item(ptr noundef %9, i32 noundef %19, ptr noundef %0, i32 noundef %15, i32 noundef 4, i32 noundef 0)
  %21 = add i32 %3, 8
  %.pr = load i32, ptr %5, align 4
  br label %dissect_openflow_instruction_header_v6.exit

dissect_openflow_instruction_header_v6.exit:      ; preds = %4, %18
  %22 = phi i32 [ %16, %4 ], [ %.pr, %18 ]
  %.0.i = phi i32 [ %15, %4 ], [ %21, %18 ]
  %23 = load i32, ptr %6, align 4
  call void @llvm.lifetime.end.p0(i64 4, ptr nonnull %6) #4
  call void @llvm.lifetime.end.p0(i64 4, ptr nonnull %5) #4
  %24 = load ptr, ptr %7, align 8
  call void @proto_item_set_len(ptr noundef %24, i32 noundef %23)
  %spec.select = call i32 @llvm.umax.i32(i32 %23, i32 8)
  %25 = add i32 %spec.select, -4
  %26 = add i32 %25, %.0.i
  switch i32 %22, label %70 [
    i32 1, label %27
    i32 2, label %34
    i32 3, label %44
    i32 4, label %44
    i32 5, label %44
    i32 7, label %51
    i32 65535, label %66
  ]

27:                                               ; preds = %dissect_openflow_instruction_header_v6.exit
  %28 = load i32, ptr @hf_openflow_v6_instruction_goto_table_table_id, align 4
  %29 = call ptr @proto_tree_add_item(ptr noundef %9, i32 noundef %28, ptr noundef %0, i32 noundef %.0.i, i32 noundef 1, i32 noundef 0)
  %30 = add i32 %.0.i, 1
  %31 = load i32, ptr @hf_openflow_v6_instruction_goto_table_pad, align 4
  %32 = call ptr @proto_tree_add_item(ptr noundef %9, i32 noundef %31, ptr noundef %0, i32 noundef %30, i32 noundef 3, i32 noundef 0)
  %33 = add i32 %.0.i, 4
  br label %.loopexit

34:                                               ; preds = %dissect_openflow_instruction_header_v6.exit
  %35 = load i32, ptr @hf_openflow_v6_instruction_write_metadata_pad, align 4
  %36 = call ptr @proto_tree_add_item(ptr noundef %9, i32 noundef %35, ptr noundef %0, i32 noundef %.0.i, i32 noundef 4, i32 noundef 0)
  %37 = add i32 %.0.i, 4
  %38 = load i32, ptr @hf_openflow_v6_instruction_write_metadata_value, align 4
  %39 = call ptr @proto_tree_add_item(ptr noundef %9, i32 noundef %38, ptr noundef %0, i32 noundef %37, i32 noundef 8, i32 noundef 0)
  %40 = add i32 %.0.i, 12
  %41 = load i32, ptr @hf_openflow_v6_instruction_write_metadata_mask, align 4
  %42 = call ptr @proto_tree_add_item(ptr noundef %9, i32 noundef %41, ptr noundef %0, i32 noundef %40, i32 noundef 8, i32 noundef 0)
  %43 = add i32 %.0.i, 20
  br label %.loopexit

44:                                               ; preds = %dissect_openflow_instruction_header_v6.exit, %dissect_openflow_instruction_header_v6.exit, %dissect_openflow_instruction_header_v6.exit
  %45 = load i32, ptr @hf_openflow_v6_instruction_actions_pad, align 4
  %46 = call ptr @proto_tree_add_item(ptr noundef %9, i32 noundef %45, ptr noundef %0, i32 noundef %.0.i, i32 noundef 4, i32 noundef 0)
  %47 = add i32 %.0.i, 4
  %48 = icmp slt i32 %47, %26
  br i1 %48, label %.lr.ph77, label %.loopexit

.lr.ph77:                                         ; preds = %44, %.lr.ph77
  %.176 = phi i32 [ %49, %.lr.ph77 ], [ %47, %44 ]
  %49 = call fastcc i32 @dissect_openflow_action_v6(ptr noundef %0, ptr noundef %1, ptr noundef %9, i32 noundef %.176)
  %50 = icmp slt i32 %49, %26
  br i1 %50, label %.lr.ph77, label %.loopexit, !llvm.loop !47

51:                                               ; preds = %dissect_openflow_instruction_header_v6.exit
  %52 = load i32, ptr @hf_openflow_v6_instruction_stat_trigger_flags, align 4
  %53 = call ptr @proto_tree_add_item(ptr noundef %9, i32 noundef %52, ptr noundef %0, i32 noundef %.0.i, i32 noundef 4, i32 noundef 0)
  store ptr %53, ptr %7, align 8
  %54 = load i32, ptr @ett_openflow_v6_instruction_stat_trigger_flags, align 4
  %55 = call ptr @proto_item_add_subtree(ptr noundef %53, i32 noundef %54)
  %56 = load i32, ptr @hf_openflow_v6_instruction_stat_triffer_flags_periodic, align 4
  %57 = call ptr @proto_tree_add_item(ptr noundef %55, i32 noundef %56, ptr noundef %0, i32 noundef %.0.i, i32 noundef 4, i32 noundef 0)
  %58 = load i32, ptr @hf_openflow_v6_instruction_stat_triffer_flags_only_first, align 4
  %59 = call ptr @proto_tree_add_item(ptr noundef %55, i32 noundef %58, ptr noundef %0, i32 noundef %.0.i, i32 noundef 4, i32 noundef 0)
  %60 = load i32, ptr @hf_openflow_v6_instruction_stat_triffer_flags_reserved, align 4
  %61 = call ptr @proto_tree_add_item(ptr noundef %55, i32 noundef %60, ptr noundef %0, i32 noundef %.0.i, i32 noundef 4, i32 noundef 0)
  %62 = add i32 %.0.i, 4
  %63 = icmp slt i32 %62, %26
  br i1 %63, label %.lr.ph, label %.loopexit

.lr.ph:                                           ; preds = %51, %.lr.ph
  %.275 = phi i32 [ %64, %.lr.ph ], [ %62, %51 ]
  %64 = call fastcc i32 @dissect_openflow_stats_v6(ptr noundef %0, ptr noundef %1, ptr noundef %9, i32 noundef %.275)
  %65 = icmp slt i32 %64, %26
  br i1 %65, label %.lr.ph, label %.loopexit, !llvm.loop !48

66:                                               ; preds = %dissect_openflow_instruction_header_v6.exit
  %67 = add i32 %spec.select, -8
  %68 = call ptr (ptr, ptr, ptr, ptr, i32, i32, ptr, ...) @proto_tree_add_expert_format(ptr noundef %9, ptr noundef %1, ptr noundef nonnull @ei_openflow_v6_instruction_undecoded, ptr noundef %0, i32 noundef %.0.i, i32 noundef %67, ptr noundef nonnull @.str.1602)
  %69 = add i32 %67, %.0.i
  br label %.loopexit

70:                                               ; preds = %dissect_openflow_instruction_header_v6.exit
  %71 = call ptr (ptr, ptr, ptr, ptr, i32, i32, ptr, ...) @proto_tree_add_expert_format(ptr noundef %9, ptr noundef %1, ptr noundef nonnull @ei_openflow_v6_instruction_undecoded, ptr noundef %0, i32 noundef %.0.i, i32 noundef %25, ptr noundef nonnull @.str.1035)
  br label %.loopexit

.loopexit:                                        ; preds = %.lr.ph, %.lr.ph77, %51, %44, %70, %66, %34, %27
  %.0 = phi i32 [ %26, %70 ], [ %69, %66 ], [ %43, %34 ], [ %33, %27 ], [ %47, %44 ], [ %62, %51 ], [ %49, %.lr.ph77 ], [ %64, %.lr.ph ]
  call void @llvm.lifetime.end.p0(i64 8, ptr nonnull %7) #4
  ret i32 %.0
}